; ModuleID = '19/565.c'
source_filename = "19/565.c"
target datalayout = "e-m:e-p270:32:32-p271:32:32-p272:64:64-i64:64-f80:128-n8:16:32:64-S128"
target triple = "x86_64-pc-linux-gnu"

@.str = private unnamed_addr constant [4 x i8] c"%s \00", align 1
@.str.1 = private unnamed_addr constant [3 x i8] c"%s\00", align 1

; Function Attrs: noinline nounwind uwtable
define dso_local i32 @main() #0 {
  %1 = alloca i32, align 4
  %2 = alloca i32, align 4
  %3 = alloca i32, align 4
  %4 = alloca [150 x i8], align 16
  %5 = alloca [150 x i8], align 16
  %6 = alloca [101 x [50 x i8]], align 16
  %7 = alloca i8, align 1
  store i32 0, i32* %1, align 4
  store i32 0, i32* %2, align 4
  store i32 0, i32* %3, align 4
  store i32 0, i32* %2, align 4
  store i32 0, i32* %3, align 4
  br label %8

8:                                                ; preds = %36, %0
  %9 = call i32 @getchar()
  %10 = trunc i32 %9 to i8
  store i8 %10, i8* %7, align 1
  %11 = sext i8 %10 to i32
  %12 = icmp ne i32 %11, 10
  br i1 %12, label %13, label %37

13:                                               ; preds = %8
  %14 = load i8, i8* %7, align 1
  %15 = sext i8 %14 to i32
  %16 = icmp eq i32 %15, 32
  br i1 %16, label %17, label %26

17:                                               ; preds = %13
  %18 = load i32, i32* %2, align 4
  %19 = sext i32 %18 to i64
  %20 = getelementptr inbounds [101 x [50 x i8]], [101 x [50 x i8]]* %6, i64 0, i64 %19
  %21 = load i32, i32* %3, align 4
  %22 = sext i32 %21 to i64
  %23 = getelementptr inbounds [50 x i8], [50 x i8]* %20, i64 0, i64 %22
  store i8 0, i8* %23, align 1
  %24 = load i32, i32* %2, align 4
  %25 = add nsw i32 %24, 1
  store i32 %25, i32* %2, align 4
  store i32 0, i32* %3, align 4
  br label %36

26:                                               ; preds = %13
  %27 = load i8, i8* %7, align 1
  %28 = load i32, i32* %2, align 4
  %29 = sext i32 %28 to i64
  %30 = getelementptr inbounds [101 x [50 x i8]], [101 x [50 x i8]]* %6, i64 0, i64 %29
  %31 = load i32, i32* %3, align 4
  %32 = sext i32 %31 to i64
  %33 = getelementptr inbounds [50 x i8], [50 x i8]* %30, i64 0, i64 %32
  store i8 %27, i8* %33, align 1
  %34 = load i32, i32* %3, align 4
  %35 = add nsw i32 %34, 1
  store i32 %35, i32* %3, align 4
  br label %36

36:                                               ; preds = %26, %17
  br label %8

37:                                               ; preds = %8
  %38 = load i32, i32* %2, align 4
  %39 = sext i32 %38 to i64
  %40 = getelementptr inbounds [101 x [50 x i8]], [101 x [50 x i8]]* %6, i64 0, i64 %39
  %41 = load i32, i32* %3, align 4
  %42 = sext i32 %41 to i64
  %43 = getelementptr inbounds [50 x i8], [50 x i8]* %40, i64 0, i64 %42
  store i8 0, i8* %43, align 1
  %44 = load i32, i32* %2, align 4
  %45 = add nsw i32 %44, 1
  store i32 %45, i32* %2, align 4
  %46 = getelementptr inbounds [150 x i8], [150 x i8]* %4, i64 0, i64 0
  %47 = call i32 (i8*, ...) bitcast (i32 (...)* @gets to i32 (i8*, ...)*)(i8* %46)
  %48 = getelementptr inbounds [150 x i8], [150 x i8]* %5, i64 0, i64 0
  %49 = call i32 (i8*, ...) bitcast (i32 (...)* @gets to i32 (i8*, ...)*)(i8* %48)
  store i32 0, i32* %3, align 4
  br label %50

50:                                               ; preds = %73, %37
  %51 = load i32, i32* %3, align 4
  %52 = load i32, i32* %2, align 4
  %53 = sub nsw i32 %52, 1
  %54 = icmp slt i32 %51, %53
  br i1 %54, label %55, label %76

55:                                               ; preds = %50
  %56 = load i32, i32* %3, align 4
  %57 = sext i32 %56 to i64
  %58 = getelementptr inbounds [101 x [50 x i8]], [101 x [50 x i8]]* %6, i64 0, i64 %57
  %59 = getelementptr inbounds [50 x i8], [50 x i8]* %58, i64 0, i64 0
  %60 = getelementptr inbounds [150 x i8], [150 x i8]* %4, i64 0, i64 0
  %61 = call i32 @strcmp(i8* %59, i8* %60) #3
  %62 = icmp ne i32 %61, 0
  br i1 %62, label %63, label %69

63:                                               ; preds = %55
  %64 = load i32, i32* %3, align 4
  %65 = sext i32 %64 to i64
  %66 = getelementptr inbounds [101 x [50 x i8]], [101 x [50 x i8]]* %6, i64 0, i64 %65
  %67 = getelementptr inbounds [50 x i8], [50 x i8]* %66, i64 0, i64 0
  %68 = call i32 (i8*, ...) @printf(i8* getelementptr inbounds ([4 x i8], [4 x i8]* @.str, i64 0, i64 0), i8* %67)
  br label %72

69:                                               ; preds = %55
  %70 = getelementptr inbounds [150 x i8], [150 x i8]* %5, i64 0, i64 0
  %71 = call i32 (i8*, ...) @printf(i8* getelementptr inbounds ([4 x i8], [4 x i8]* @.str, i64 0, i64 0), i8* %70)
  br label %72

72:                                               ; preds = %69, %63
  br label %73

73:                                               ; preds = %72
  %74 = load i32, i32* %3, align 4
  %75 = add nsw i32 %74, 1
  store i32 %75, i32* %3, align 4
  br label %50

76:                                               ; preds = %50
  %77 = load i32, i32* %3, align 4
  %78 = sext i32 %77 to i64
  %79 = getelementptr inbounds [101 x [50 x i8]], [101 x [50 x i8]]* %6, i64 0, i64 %78
  %80 = getelementptr inbounds [50 x i8], [50 x i8]* %79, i64 0, i64 0
  %81 = getelementptr inbounds [150 x i8], [150 x i8]* %4, i64 0, i64 0
  %82 = call i32 @strcmp(i8* %80, i8* %81) #3
  %83 = icmp ne i32 %82, 0
  br i1 %83, label %84, label %90

84:                                               ; preds = %76
  %85 = load i32, i32* %3, align 4
  %86 = sext i32 %85 to i64
  %87 = getelementptr inbounds [101 x [50 x i8]], [101 x [50 x i8]]* %6, i64 0, i64 %86
  %88 = getelementptr inbounds [50 x i8], [50 x i8]* %87, i64 0, i64 0
  %89 = call i32 (i8*, ...) @printf(i8* getelementptr inbounds ([3 x i8], [3 x i8]* @.str.1, i64 0, i64 0), i8* %88)
  br label %93

90:                                               ; preds = %76
  %91 = getelementptr inbounds [150 x i8], [150 x i8]* %5, i64 0, i64 0
  %92 = call i32 (i8*, ...) @printf(i8* getelementptr inbounds ([3 x i8], [3 x i8]* @.str.1, i64 0, i64 0), i8* %91)
  br label %93

93:                                               ; preds = %90, %84
  %94 = load i32, i32* %1, align 4
  ret i32 %94
}

declare dso_local i32 @getchar() #1

declare dso_local i32 @gets(...) #1

; Function Attrs: nounwind readonly
declare dso_local i32 @strcmp(i8*, i8*) #2

declare dso_local i32 @printf(i8*, ...) #1


!llvm.module.flags = !{!0}
!llvm.ident = !{!1}

!0 = !{i32 1, !"wchar_size", i32 4}
!1 = !{!"clang version 10.0.0-4ubuntu1 "}
